; ModuleID = '31/494.c'
source_filename = "31/494.c"
target datalayout = "e-m:e-p270:32:32-p271:32:32-p272:64:64-i64:64-f80:128-n8:16:32:64-S128"
target triple = "x86_64-pc-linux-gnu"

%struct.stu = type { [100 x i8], [100 x i8], [10 x i8], i32, [100 x i8], [100 x i8], %struct.stu* }

@.str = private unnamed_addr constant [19 x i8] c"%s %s %s %d %s %s\0A\00", align 1
@.str.1 = private unnamed_addr constant [3 x i8] c"%s\00", align 1
@.str.2 = private unnamed_addr constant [4 x i8] c"end\00", align 1
@.str.3 = private unnamed_addr constant [11 x i8] c"%s%s%d%s%s\00", align 1

; Function Attrs: noinline nounwind uwtable
define dso_local void @main() #0 {
  %1 = alloca %struct.stu*, align 8
  %2 = call %struct.stu* @f()
  store %struct.stu* %2, %struct.stu** %1, align 8
  br label %3

3:                                                ; preds = %6, %0
  %4 = load %struct.stu*, %struct.stu** %1, align 8
  %5 = icmp ne %struct.stu* %4, null
  br i1 %5, label %6, label %29

6:                                                ; preds = %3
  %7 = load %struct.stu*, %struct.stu** %1, align 8
  %8 = getelementptr inbounds %struct.stu, %struct.stu* %7, i32 0, i32 0
  %9 = getelementptr inbounds [100 x i8], [100 x i8]* %8, i64 0, i64 0
  %10 = load %struct.stu*, %struct.stu** %1, align 8
  %11 = getelementptr inbounds %struct.stu, %struct.stu* %10, i32 0, i32 1
  %12 = getelementptr inbounds [100 x i8], [100 x i8]* %11, i64 0, i64 0
  %13 = load %struct.stu*, %struct.stu** %1, align 8
  %14 = getelementptr inbounds %struct.stu, %struct.stu* %13, i32 0, i32 2
  %15 = getelementptr inbounds [10 x i8], [10 x i8]* %14, i64 0, i64 0
  %16 = load %struct.stu*, %struct.stu** %1, align 8
  %17 = getelementptr inbounds %struct.stu, %struct.stu* %16, i32 0, i32 3
  %18 = load i32, i32* %17, align 4
  %19 = load %struct.stu*, %struct.stu** %1, align 8
  %20 = getelementptr inbounds %struct.stu, %struct.stu* %19, i32 0, i32 4
  %21 = getelementptr inbounds [100 x i8], [100 x i8]* %20, i64 0, i64 0
  %22 = load %struct.stu*, %struct.stu** %1, align 8
  %23 = getelementptr inbounds %struct.stu, %struct.stu* %22, i32 0, i32 5
  %24 = getelementptr inbounds [100 x i8], [100 x i8]* %23, i64 0, i64 0
  %25 = call i32 (i8*, ...) @printf(i8* getelementptr inbounds ([19 x i8], [19 x i8]* @.str, i64 0, i64 0), i8* %9, i8* %12, i8* %15, i32 %18, i8* %21, i8* %24)
  %26 = load %struct.stu*, %struct.stu** %1, align 8
  %27 = getelementptr inbounds %struct.stu, %struct.stu* %26, i32 0, i32 6
  %28 = load %struct.stu*, %struct.stu** %27, align 8
  store %struct.stu* %28, %struct.stu** %1, align 8
  br label %3

29:                                               ; preds = %3
  ret void
}

declare dso_local i32 @printf(i8*, ...) #1

; Function Attrs: noinline nounwind uwtable
define dso_local %struct.stu* @f() #0 {
  %1 = alloca %struct.stu*, align 8
  %2 = alloca %struct.stu*, align 8
  %3 = call noalias i8* @malloc(i64 424) #4
  %4 = bitcast i8* %3 to %struct.stu*
  store %struct.stu* %4, %struct.stu** %1, align 8
  %5 = load %struct.stu*, %struct.stu** %1, align 8
  store %struct.stu* %5, %struct.stu** %2, align 8
  %6 = load %struct.stu*, %struct.stu** %1, align 8
  %7 = getelementptr inbounds %struct.stu, %struct.stu* %6, i32 0, i32 0
  %8 = getelementptr inbounds [100 x i8], [100 x i8]* %7, i64 0, i64 0
  %9 = call i32 (i8*, ...) @__isoc99_scanf(i8* getelementptr inbounds ([3 x i8], [3 x i8]* @.str.1, i64 0, i64 0), i8* %8)
  %10 = load %struct.stu*, %struct.stu** %1, align 8
  %11 = getelementptr inbounds %struct.stu, %struct.stu* %10, i32 0, i32 6
  store %struct.stu* null, %struct.stu** %11, align 8
  %12 = load %struct.stu*, %struct.stu** %1, align 8
  %13 = getelementptr inbounds %struct.stu, %struct.stu* %12, i32 0, i32 0
  %14 = getelementptr inbounds [100 x i8], [100 x i8]* %13, i64 0, i64 0
  %15 = call i32 @strcmp(i8* %14, i8* getelementptr inbounds ([4 x i8], [4 x i8]* @.str.2, i64 0, i64 0)) #5
  %16 = icmp ne i32 %15, 0
  br i1 %16, label %17, label %51

17:                                               ; preds = %0
  br label %18

18:                                               ; preds = %44, %17
  %19 = load %struct.stu*, %struct.stu** %1, align 8
  store %struct.stu* %19, %struct.stu** %2, align 8
  %20 = load %struct.stu*, %struct.stu** %1, align 8
  %21 = getelementptr inbounds %struct.stu, %struct.stu* %20, i32 0, i32 1
  %22 = getelementptr inbounds [100 x i8], [100 x i8]* %21, i64 0, i64 0
  %23 = load %struct.stu*, %struct.stu** %1, align 8
  %24 = getelementptr inbounds %struct.stu, %struct.stu* %23, i32 0, i32 2
  %25 = getelementptr inbounds [10 x i8], [10 x i8]* %24, i64 0, i64 0
  %26 = load %struct.stu*, %struct.stu** %1, align 8
  %27 = getelementptr inbounds %struct.stu, %struct.stu* %26, i32 0, i32 3
  %28 = load %struct.stu*, %struct.stu** %1, align 8
  %29 = getelementptr inbounds %struct.stu, %struct.stu* %28, i32 0, i32 4
  %30 = getelementptr inbounds [100 x i8], [100 x i8]* %29, i64 0, i64 0
  %31 = load %struct.stu*, %struct.stu** %1, align 8
  %32 = getelementptr inbounds %struct.stu, %struct.stu* %31, i32 0, i32 5
  %33 = getelementptr inbounds [100 x i8], [100 x i8]* %32, i64 0, i64 0
  %34 = call i32 (i8*, ...) @__isoc99_scanf(i8* getelementptr inbounds ([11 x i8], [11 x i8]* @.str.3, i64 0, i64 0), i8* %22, i8* %25, i32* %27, i8* %30, i8* %33)
  %35 = call noalias i8* @malloc(i64 424) #4
  %36 = bitcast i8* %35 to %struct.stu*
  store %struct.stu* %36, %struct.stu** %1, align 8
  %37 = load %struct.stu*, %struct.stu** %2, align 8
  %38 = load %struct.stu*, %struct.stu** %1, align 8
  %39 = getelementptr inbounds %struct.stu, %struct.stu* %38, i32 0, i32 6
  store %struct.stu* %37, %struct.stu** %39, align 8
  %40 = load %struct.stu*, %struct.stu** %1, align 8
  %41 = getelementptr inbounds %struct.stu, %struct.stu* %40, i32 0, i32 0
  %42 = getelementptr inbounds [100 x i8], [100 x i8]* %41, i64 0, i64 0
  %43 = call i32 (i8*, ...) @__isoc99_scanf(i8* getelementptr inbounds ([3 x i8], [3 x i8]* @.str.1, i64 0, i64 0), i8* %42)
  br label %44

44:                                               ; preds = %18
  %45 = load %struct.stu*, %struct.stu** %1, align 8
  %46 = getelementptr inbounds %struct.stu, %struct.stu* %45, i32 0, i32 0
  %47 = getelementptr inbounds [100 x i8], [100 x i8]* %46, i64 0, i64 0
  %48 = call i32 @strcmp(i8* %47, i8* getelementptr inbounds ([4 x i8], [4 x i8]* @.str.2, i64 0, i64 0)) #5
  %49 = icmp ne i32 %48, 0
  br i1 %49, label %18, label %50

50:                                               ; preds = %44
  br label %51

51:                                               ; preds = %50, %0
  %52 = load %struct.stu*, %struct.stu** %2, align 8
  ret %struct.stu* %52
}

; Function Attrs: nounwind
declare dso_local noalias i8* @malloc(i64) #2

declare dso_local i32 @__isoc99_scanf(i8*, ...) #1

; Function Attrs: nounwind readonly
declare dso_local i32 @strcmp(i8*, i8*) #3


!llvm.module.flags = !{!0}
!llvm.ident = !{!1}

!0 = !{i32 1, !"wchar_size", i32 4}
!1 = !{!"clang version 10.0.0-4ubuntu1 "}
