; ModuleID = 'source-C-CXX/30/494.c'
source_filename = "source-C-CXX/30/494.c"
target datalayout = "e-m:e-p270:32:32-p271:32:32-p272:64:64-i64:64-f80:128-n8:16:32:64-S128"
target triple = "x86_64-pc-linux-gnu"

%struct.stu = type { [100 x i8], [100 x i8], [10 x i8], i32, [100 x i8], [100 x i8], %struct.stu* }

@.str = private unnamed_addr constant [19 x i8] c"%s %s %s %d %s %s\0A\00", align 1
@.str.1 = private unnamed_addr constant [3 x i8] c"%s\00", align 1
@.str.2 = private unnamed_addr constant [4 x i8] c"end\00", align 1
@.str.3 = private unnamed_addr constant [11 x i8] c"%s%s%d%s%s\00", align 1

; Function Attrs: nofree nounwind sspstrong uwtable
define dso_local void @main() local_unnamed_addr #0 {
  %1 = tail call %struct.stu* @f()
  %2 = icmp eq %struct.stu* %1, null
  br i1 %2, label %16, label %3

3:                                                ; preds = %0, %3
  %4 = phi %struct.stu* [ %14, %3 ], [ %1, %0 ]
  %5 = getelementptr inbounds %struct.stu, %struct.stu* %4, i64 0, i32 0, i64 0
  %6 = getelementptr inbounds %struct.stu, %struct.stu* %4, i64 0, i32 1, i64 0
  %7 = getelementptr inbounds %struct.stu, %struct.stu* %4, i64 0, i32 2, i64 0
  %8 = getelementptr inbounds %struct.stu, %struct.stu* %4, i64 0, i32 3
  %9 = load i32, i32* %8, align 4, !tbaa !5
  %10 = getelementptr inbounds %struct.stu, %struct.stu* %4, i64 0, i32 4, i64 0
  %11 = getelementptr inbounds %struct.stu, %struct.stu* %4, i64 0, i32 5, i64 0
  %12 = tail call i32 (i8*, ...) @printf(i8* nonnull dereferenceable(1) getelementptr inbounds ([19 x i8], [19 x i8]* @.str, i64 0, i64 0), i8* nonnull %5, i8* nonnull %6, i8* nonnull %7, i32 %9, i8* nonnull %10, i8* nonnull %11)
  %13 = getelementptr inbounds %struct.stu, %struct.stu* %4, i64 0, i32 6
  %14 = load %struct.stu*, %struct.stu** %13, align 8, !tbaa !11
  %15 = icmp eq %struct.stu* %14, null
  br i1 %15, label %16, label %3, !llvm.loop !12

16:                                               ; preds = %3, %0
  ret void
}

; Function Attrs: nofree nounwind
declare noundef i32 @printf(i8* nocapture noundef readonly, ...) local_unnamed_addr #1

; Function Attrs: nofree nounwind sspstrong uwtable
define dso_local %struct.stu* @f() local_unnamed_addr #0 {
  %1 = tail call noalias align 16 dereferenceable_or_null(424) i8* @malloc(i64 424) #4
  %2 = bitcast i8* %1 to %struct.stu*
  %3 = getelementptr inbounds %struct.stu, %struct.stu* %2, i64 0, i32 0, i64 0
  %4 = tail call i32 (i8*, ...) @__isoc99_scanf(i8* getelementptr inbounds ([3 x i8], [3 x i8]* @.str.1, i64 0, i64 0), i8* %3)
  %5 = getelementptr inbounds %struct.stu, %struct.stu* %2, i64 0, i32 6
  store %struct.stu* null, %struct.stu** %5, align 16, !tbaa !11
  %6 = tail call i32 @strcmp(i8* noundef nonnull dereferenceable(1) %3, i8* noundef nonnull dereferenceable(4) getelementptr inbounds ([4 x i8], [4 x i8]* @.str.2, i64 0, i64 0)) #5
  %7 = icmp eq i32 %6, 0
  br i1 %7, label %23, label %8

8:                                                ; preds = %0, %8
  %9 = phi %struct.stu* [ %17, %8 ], [ %2, %0 ]
  %10 = getelementptr inbounds %struct.stu, %struct.stu* %9, i64 0, i32 1, i64 0
  %11 = getelementptr inbounds %struct.stu, %struct.stu* %9, i64 0, i32 2, i64 0
  %12 = getelementptr inbounds %struct.stu, %struct.stu* %9, i64 0, i32 3
  %13 = getelementptr inbounds %struct.stu, %struct.stu* %9, i64 0, i32 4, i64 0
  %14 = getelementptr inbounds %struct.stu, %struct.stu* %9, i64 0, i32 5, i64 0
  %15 = tail call i32 (i8*, ...) @__isoc99_scanf(i8* getelementptr inbounds ([11 x i8], [11 x i8]* @.str.3, i64 0, i64 0), i8* nonnull %10, i8* nonnull %11, i32* nonnull %12, i8* nonnull %13, i8* nonnull %14)
  %16 = tail call noalias align 16 dereferenceable_or_null(424) i8* @malloc(i64 424) #4
  %17 = bitcast i8* %16 to %struct.stu*
  %18 = getelementptr inbounds %struct.stu, %struct.stu* %17, i64 0, i32 6
  store %struct.stu* %9, %struct.stu** %18, align 16, !tbaa !11
  %19 = getelementptr inbounds %struct.stu, %struct.stu* %17, i64 0, i32 0, i64 0
  %20 = tail call i32 (i8*, ...) @__isoc99_scanf(i8* getelementptr inbounds ([3 x i8], [3 x i8]* @.str.1, i64 0, i64 0), i8* %19)
  %21 = tail call i32 @strcmp(i8* noundef nonnull dereferenceable(1) %19, i8* noundef nonnull dereferenceable(4) getelementptr inbounds ([4 x i8], [4 x i8]* @.str.2, i64 0, i64 0)) #5
  %22 = icmp eq i32 %21, 0
  br i1 %22, label %23, label %8, !llvm.loop !14

23:                                               ; preds = %8, %0
  %24 = phi %struct.stu* [ %2, %0 ], [ %9, %8 ]
  ret %struct.stu* %24
}

; Function Attrs: inaccessiblememonly mustprogress nofree nounwind willreturn
declare noalias noundef align 16 i8* @malloc(i64 noundef) local_unnamed_addr #2

; Function Attrs: nofree nounwind
declare noundef i32 @__isoc99_scanf(i8* nocapture noundef readonly, ...) local_unnamed_addr #1

; Function Attrs: argmemonly mustprogress nofree nounwind readonly willreturn
declare i32 @strcmp(i8* nocapture, i8* nocapture) local_unnamed_addr #3


!llvm.module.flags = !{!0, !1, !2, !3}
!llvm.ident = !{!4}

!0 = !{i32 1, !"wchar_size", i32 4}
!1 = !{i32 7, !"PIC Level", i32 2}
!2 = !{i32 7, !"PIE Level", i32 2}
!3 = !{i32 7, !"uwtable", i32 1}
!4 = !{!"clang version 13.0.0"}
!5 = !{!6, !9, i64 212}
!6 = !{!"stu", !7, i64 0, !7, i64 100, !7, i64 200, !9, i64 212, !7, i64 216, !7, i64 316, !10, i64 416}
!7 = !{!"omnipotent char", !8, i64 0}
!8 = !{!"Simple C/C++ TBAA"}
!9 = !{!"int", !7, i64 0}
!10 = !{!"any pointer", !7, i64 0}
!11 = !{!6, !10, i64 416}
!12 = distinct !{!12, !13}
!13 = !{!"llvm.loop.mustprogress"}
!14 = distinct !{!14, !13}
